; Function Attrs: inlinehint nounwind uwtable
define internal fastcc i32 @HashObject(ptr noundef %0, i32 noundef %1, ptr noundef nonnull writeonly captures(none) initializes((0, 4)) %2) unnamed_addr #11 {
  %4 = alloca [64 x i8], align 16
  call void @llvm.lifetime.start.p0(i64 64, ptr nonnull %4) #22
  %5 = call i32 @wc_Md5Hash(ptr noundef %0, i32 noundef %1, ptr noundef nonnull %4) #22
  store i32 %5, ptr %2, align 4, !tbaa !3
  %6 = icmp eq i32 %5, 0
  br i1 %6, label %7, label %25

7:                                                ; preds = %3
  %8 = load i8, ptr %4, align 16, !tbaa !43
  %9 = zext i8 %8 to i32
  %10 = shl nuw i32 %9, 24
  %11 = getelementptr inbounds nuw i8, ptr %4, i64 1
  %12 = load i8, ptr %11, align 1, !tbaa !43
  %13 = zext i8 %12 to i32
  %14 = shl nuw nsw i32 %13, 16
  %15 = or disjoint i32 %14, %10
  %16 = getelementptr inbounds nuw i8, ptr %4, i64 2
  %17 = load i8, ptr %16, align 2, !tbaa !43
  %18 = zext i8 %17 to i32
  %19 = shl nuw nsw i32 %18, 8
  %20 = or disjoint i32 %15, %19
  %21 = getelementptr inbounds nuw i8, ptr %4, i64 3
  %22 = load i8, ptr %21, align 1, !tbaa !43
  %23 = zext i8 %22 to i32
  %24 = or disjoint i32 %20, %23
  br label %25

25:                                               ; preds = %3, %7
  %26 = phi i32 [ %24, %7 ], [ 0, %3 ]
  call void @llvm.lifetime.end.p0(i64 64, ptr nonnull %4) #22
  ret i32 %26
}